
main.elf:     file format elf64-littleriscv


Disassembly of section .text:

0000800000000000 <_TEXT_START_>:
    800000000000:	2010029b          	addiw	t0,zero,513
    800000000004:	01e29293          	slli	t0,t0,0x1e
    800000000008:	00028113          	mv	sp,t0
    80000000000c:	0040006f          	j	800000000010 <main>

0000800000000010 <main>:
    800000000010:	e0010113          	addi	sp,sp,-512
    800000000014:	1e113c23          	sd	ra,504(sp)
    800000000018:	1e813823          	sd	s0,496(sp)
    80000000001c:	1f213423          	sd	s2,488(sp)
    800000000020:	1f313023          	sd	s3,480(sp)
    800000000024:	1d413c23          	sd	s4,472(sp)
    800000000028:	1d513823          	sd	s5,464(sp)
    80000000002c:	1d613423          	sd	s6,456(sp)
    800000000030:	1d713023          	sd	s7,448(sp)
    800000000034:	1b813c23          	sd	s8,440(sp)
    800000000038:	1b913823          	sd	s9,432(sp)
    80000000003c:	1ba13423          	sd	s10,424(sp)
    800000000040:	1bb13023          	sd	s11,416(sp)
    800000000044:	20010413          	addi	s0,sp,512
    800000000048:	00200793          	li	a5,2
    80000000004c:	f8f43023          	sd	a5,-128(s0)
    800000000050:	f8043783          	ld	a5,-128(s0)
    800000000054:	fff78293          	addi	t0,a5,-1
    800000000058:	f6543c23          	sd	t0,-136(s0)
    80000000005c:	00028793          	mv	a5,t0
    800000000060:	00178793          	addi	a5,a5,1
    800000000064:	00078513          	mv	a0,a5
    800000000068:	00000593          	li	a1,0
    80000000006c:	03a55793          	srli	a5,a0,0x3a
    800000000070:	00659693          	slli	a3,a1,0x6
    800000000074:	00d7e6b3          	or	a3,a5,a3
    800000000078:	00651613          	slli	a2,a0,0x6
    80000000007c:	00028793          	mv	a5,t0
    800000000080:	00178793          	addi	a5,a5,1
    800000000084:	00379093          	slli	ra,a5,0x3
    800000000088:	f8043783          	ld	a5,-128(s0)
    80000000008c:	fff78613          	addi	a2,a5,-1
    800000000090:	f6c43823          	sd	a2,-144(s0)
    800000000094:	00028793          	mv	a5,t0
    800000000098:	00178793          	addi	a5,a5,1
    80000000009c:	00078313          	mv	t1,a5
    8000000000a0:	00000393          	li	t2,0
    8000000000a4:	00060793          	mv	a5,a2
    8000000000a8:	00178793          	addi	a5,a5,1
    8000000000ac:	00078813          	mv	a6,a5
    8000000000b0:	00000893          	li	a7,0
    8000000000b4:	03038733          	mul	a4,t2,a6
    8000000000b8:	026887b3          	mul	a5,a7,t1
    8000000000bc:	00f706b3          	add	a3,a4,a5
    8000000000c0:	03030733          	mul	a4,t1,a6
    8000000000c4:	030337b3          	mulhu	a5,t1,a6
    8000000000c8:	00070e13          	mv	t3,a4
    8000000000cc:	00078e93          	mv	t4,a5
    8000000000d0:	01d687b3          	add	a5,a3,t4
    8000000000d4:	00078e93          	mv	t4,a5
    8000000000d8:	03ae5793          	srli	a5,t3,0x3a
    8000000000dc:	006e9f93          	slli	t6,t4,0x6
    8000000000e0:	01f7efb3          	or	t6,a5,t6
    8000000000e4:	006e1f13          	slli	t5,t3,0x6
    8000000000e8:	00028793          	mv	a5,t0
    8000000000ec:	00178793          	addi	a5,a5,1
    8000000000f0:	00078a13          	mv	s4,a5
    8000000000f4:	00000a93          	li	s5,0
    8000000000f8:	00060793          	mv	a5,a2
    8000000000fc:	00178793          	addi	a5,a5,1
    800000000100:	00078913          	mv	s2,a5
    800000000104:	00000993          	li	s3,0
    800000000108:	032a8733          	mul	a4,s5,s2
    80000000010c:	034987b3          	mul	a5,s3,s4
    800000000110:	00f706b3          	add	a3,a4,a5
    800000000114:	032a0733          	mul	a4,s4,s2
    800000000118:	032a37b3          	mulhu	a5,s4,s2
    80000000011c:	00070b13          	mv	s6,a4
    800000000120:	00078b93          	mv	s7,a5
    800000000124:	017687b3          	add	a5,a3,s7
    800000000128:	00078b93          	mv	s7,a5
    80000000012c:	03ab5793          	srli	a5,s6,0x3a
    800000000130:	006b9c93          	slli	s9,s7,0x6
    800000000134:	0197ecb3          	or	s9,a5,s9
    800000000138:	006b1c13          	slli	s8,s6,0x6
    80000000013c:	00028793          	mv	a5,t0
    800000000140:	00178713          	addi	a4,a5,1
    800000000144:	00060793          	mv	a5,a2
    800000000148:	00178793          	addi	a5,a5,1
    80000000014c:	02f707b3          	mul	a5,a4,a5
    800000000150:	00379793          	slli	a5,a5,0x3
    800000000154:	00f78793          	addi	a5,a5,15
    800000000158:	0047d793          	srli	a5,a5,0x4
    80000000015c:	00479793          	slli	a5,a5,0x4
    800000000160:	40f10133          	sub	sp,sp,a5
    800000000164:	00010793          	mv	a5,sp
    800000000168:	00778793          	addi	a5,a5,7
    80000000016c:	0037d793          	srli	a5,a5,0x3
    800000000170:	00379793          	slli	a5,a5,0x3
    800000000174:	f6f43423          	sd	a5,-152(s0)
    800000000178:	f6843703          	ld	a4,-152(s0)
    80000000017c:	00100793          	li	a5,1
    800000000180:	00f73023          	sd	a5,0(a4)
    800000000184:	00200793          	li	a5,2
    800000000188:	00f73423          	sd	a5,8(a4)
    80000000018c:	00028793          	mv	a5,t0
    800000000190:	00178793          	addi	a5,a5,1
    800000000194:	00379793          	slli	a5,a5,0x3
    800000000198:	00f70733          	add	a4,a4,a5
    80000000019c:	fff60693          	addi	a3,a2,-1
    8000000001a0:	00300793          	li	a5,3
    8000000001a4:	00f73023          	sd	a5,0(a4)
    8000000001a8:	00400793          	li	a5,4
    8000000001ac:	00f73423          	sd	a5,8(a4)
    8000000001b0:	00028793          	mv	a5,t0
    8000000001b4:	00178793          	addi	a5,a5,1
    8000000001b8:	00379793          	slli	a5,a5,0x3
    8000000001bc:	00f70633          	add	a2,a4,a5
    8000000001c0:	fff68693          	addi	a3,a3,-1
    8000000001c4:	0206cc63          	bltz	a3,8000000001fc <main+0x1ec>
    8000000001c8:	00060713          	mv	a4,a2
    8000000001cc:	00028793          	mv	a5,t0
    8000000001d0:	0007ca63          	bltz	a5,8000000001e4 <main+0x1d4>
    8000000001d4:	00073023          	sd	zero,0(a4)
    8000000001d8:	00870713          	addi	a4,a4,8
    8000000001dc:	fff78793          	addi	a5,a5,-1
    8000000001e0:	ff1ff06f          	j	8000000001d0 <main+0x1c0>
    8000000001e4:	00028793          	mv	a5,t0
    8000000001e8:	00178793          	addi	a5,a5,1
    8000000001ec:	00379793          	slli	a5,a5,0x3
    8000000001f0:	00f60633          	add	a2,a2,a5
    8000000001f4:	fff68693          	addi	a3,a3,-1
    8000000001f8:	fcdff06f          	j	8000000001c4 <main+0x1b4>
    8000000001fc:	f8043783          	ld	a5,-128(s0)
    800000000200:	fff78593          	addi	a1,a5,-1
    800000000204:	f6b43023          	sd	a1,-160(s0)
    800000000208:	00058793          	mv	a5,a1
    80000000020c:	00178793          	addi	a5,a5,1
    800000000210:	e6f43023          	sd	a5,-416(s0)
    800000000214:	e6043423          	sd	zero,-408(s0)
    800000000218:	e6043783          	ld	a5,-416(s0)
    80000000021c:	03a7d793          	srli	a5,a5,0x3a
    800000000220:	e6843703          	ld	a4,-408(s0)
    800000000224:	00671d93          	slli	s11,a4,0x6
    800000000228:	01b7edb3          	or	s11,a5,s11
    80000000022c:	e6043783          	ld	a5,-416(s0)
    800000000230:	00679d13          	slli	s10,a5,0x6
    800000000234:	00058793          	mv	a5,a1
    800000000238:	00178793          	addi	a5,a5,1
    80000000023c:	00379813          	slli	a6,a5,0x3
    800000000240:	f8043783          	ld	a5,-128(s0)
    800000000244:	fff78613          	addi	a2,a5,-1
    800000000248:	f4c43c23          	sd	a2,-168(s0)
    80000000024c:	00058793          	mv	a5,a1
    800000000250:	00178793          	addi	a5,a5,1
    800000000254:	eef43023          	sd	a5,-288(s0)
    800000000258:	ee043423          	sd	zero,-280(s0)
    80000000025c:	00060793          	mv	a5,a2
    800000000260:	00178793          	addi	a5,a5,1
    800000000264:	ecf43823          	sd	a5,-304(s0)
    800000000268:	ec043c23          	sd	zero,-296(s0)
    80000000026c:	ee843783          	ld	a5,-280(s0)
    800000000270:	ed043703          	ld	a4,-304(s0)
    800000000274:	02e78733          	mul	a4,a5,a4
    800000000278:	ed843783          	ld	a5,-296(s0)
    80000000027c:	ee043683          	ld	a3,-288(s0)
    800000000280:	02d787b3          	mul	a5,a5,a3
    800000000284:	00f706b3          	add	a3,a4,a5
    800000000288:	ee043783          	ld	a5,-288(s0)
    80000000028c:	ed043703          	ld	a4,-304(s0)
    800000000290:	02e78733          	mul	a4,a5,a4
    800000000294:	ee043783          	ld	a5,-288(s0)
    800000000298:	ed043503          	ld	a0,-304(s0)
    80000000029c:	02a7b7b3          	mulhu	a5,a5,a0
    8000000002a0:	f2e43023          	sd	a4,-224(s0)
    8000000002a4:	f2f43423          	sd	a5,-216(s0)
    8000000002a8:	f2843783          	ld	a5,-216(s0)
    8000000002ac:	00f687b3          	add	a5,a3,a5
    8000000002b0:	f2f43423          	sd	a5,-216(s0)
    8000000002b4:	f2043783          	ld	a5,-224(s0)
    8000000002b8:	03a7d793          	srli	a5,a5,0x3a
    8000000002bc:	f2843703          	ld	a4,-216(s0)
    8000000002c0:	00671713          	slli	a4,a4,0x6
    8000000002c4:	e4e43423          	sd	a4,-440(s0)
    8000000002c8:	e4843703          	ld	a4,-440(s0)
    8000000002cc:	00e7e7b3          	or	a5,a5,a4
    8000000002d0:	e4f43423          	sd	a5,-440(s0)
    8000000002d4:	f2043783          	ld	a5,-224(s0)
    8000000002d8:	00679793          	slli	a5,a5,0x6
    8000000002dc:	e4f43023          	sd	a5,-448(s0)
    8000000002e0:	00058793          	mv	a5,a1
    8000000002e4:	00178793          	addi	a5,a5,1
    8000000002e8:	ecf43023          	sd	a5,-320(s0)
    8000000002ec:	ec043423          	sd	zero,-312(s0)
    8000000002f0:	00060793          	mv	a5,a2
    8000000002f4:	00178793          	addi	a5,a5,1
    8000000002f8:	eaf43823          	sd	a5,-336(s0)
    8000000002fc:	ea043c23          	sd	zero,-328(s0)
    800000000300:	ec843783          	ld	a5,-312(s0)
    800000000304:	eb043703          	ld	a4,-336(s0)
    800000000308:	02e78733          	mul	a4,a5,a4
    80000000030c:	eb843783          	ld	a5,-328(s0)
    800000000310:	ec043683          	ld	a3,-320(s0)
    800000000314:	02d787b3          	mul	a5,a5,a3
    800000000318:	00f706b3          	add	a3,a4,a5
    80000000031c:	ec043783          	ld	a5,-320(s0)
    800000000320:	eb043703          	ld	a4,-336(s0)
    800000000324:	02e78733          	mul	a4,a5,a4
    800000000328:	ec043783          	ld	a5,-320(s0)
    80000000032c:	eb043503          	ld	a0,-336(s0)
    800000000330:	02a7b7b3          	mulhu	a5,a5,a0
    800000000334:	f0e43823          	sd	a4,-240(s0)
    800000000338:	f0f43c23          	sd	a5,-232(s0)
    80000000033c:	f1843783          	ld	a5,-232(s0)
    800000000340:	00f687b3          	add	a5,a3,a5
    800000000344:	f0f43c23          	sd	a5,-232(s0)
    800000000348:	f1043783          	ld	a5,-240(s0)
    80000000034c:	03a7d793          	srli	a5,a5,0x3a
    800000000350:	f1843703          	ld	a4,-232(s0)
    800000000354:	00671713          	slli	a4,a4,0x6
    800000000358:	e2e43c23          	sd	a4,-456(s0)
    80000000035c:	e3843703          	ld	a4,-456(s0)
    800000000360:	00e7e7b3          	or	a5,a5,a4
    800000000364:	e2f43c23          	sd	a5,-456(s0)
    800000000368:	f1043783          	ld	a5,-240(s0)
    80000000036c:	00679793          	slli	a5,a5,0x6
    800000000370:	e2f43823          	sd	a5,-464(s0)
    800000000374:	00058793          	mv	a5,a1
    800000000378:	00178713          	addi	a4,a5,1
    80000000037c:	00060793          	mv	a5,a2
    800000000380:	00178793          	addi	a5,a5,1
    800000000384:	02f707b3          	mul	a5,a4,a5
    800000000388:	00379793          	slli	a5,a5,0x3
    80000000038c:	00f78793          	addi	a5,a5,15
    800000000390:	0047d793          	srli	a5,a5,0x4
    800000000394:	00479793          	slli	a5,a5,0x4
    800000000398:	40f10133          	sub	sp,sp,a5
    80000000039c:	00010793          	mv	a5,sp
    8000000003a0:	00778793          	addi	a5,a5,7
    8000000003a4:	0037d793          	srli	a5,a5,0x3
    8000000003a8:	00379793          	slli	a5,a5,0x3
    8000000003ac:	f4f43823          	sd	a5,-176(s0)
    8000000003b0:	f5043783          	ld	a5,-176(s0)
    8000000003b4:	00200713          	li	a4,2
    8000000003b8:	00e7b023          	sd	a4,0(a5)
    8000000003bc:	0007b423          	sd	zero,8(a5)
    8000000003c0:	00058713          	mv	a4,a1
    8000000003c4:	00170713          	addi	a4,a4,1
    8000000003c8:	00371713          	slli	a4,a4,0x3
    8000000003cc:	00e787b3          	add	a5,a5,a4
    8000000003d0:	fff60693          	addi	a3,a2,-1
    8000000003d4:	0007b023          	sd	zero,0(a5)
    8000000003d8:	00200713          	li	a4,2
    8000000003dc:	00e7b423          	sd	a4,8(a5)
    8000000003e0:	00058713          	mv	a4,a1
    8000000003e4:	00170713          	addi	a4,a4,1
    8000000003e8:	00371713          	slli	a4,a4,0x3
    8000000003ec:	00e78733          	add	a4,a5,a4
    8000000003f0:	fff68793          	addi	a5,a3,-1
    8000000003f4:	0207cc63          	bltz	a5,80000000042c <main+0x41c>
    8000000003f8:	00070613          	mv	a2,a4
    8000000003fc:	00058693          	mv	a3,a1
    800000000400:	0006ca63          	bltz	a3,800000000414 <main+0x404>
    800000000404:	00063023          	sd	zero,0(a2)
    800000000408:	00860613          	addi	a2,a2,8
    80000000040c:	fff68693          	addi	a3,a3,-1
    800000000410:	ff1ff06f          	j	800000000400 <main+0x3f0>
    800000000414:	00058693          	mv	a3,a1
    800000000418:	00168693          	addi	a3,a3,1
    80000000041c:	00369693          	slli	a3,a3,0x3
    800000000420:	00d70733          	add	a4,a4,a3
    800000000424:	fff78793          	addi	a5,a5,-1
    800000000428:	fcdff06f          	j	8000000003f4 <main+0x3e4>
    80000000042c:	f8043783          	ld	a5,-128(s0)
    800000000430:	fff78793          	addi	a5,a5,-1
    800000000434:	f4f43423          	sd	a5,-184(s0)
    800000000438:	00078713          	mv	a4,a5
    80000000043c:	00170713          	addi	a4,a4,1
    800000000440:	e4e43823          	sd	a4,-432(s0)
    800000000444:	e4043c23          	sd	zero,-424(s0)
    800000000448:	e5043703          	ld	a4,-432(s0)
    80000000044c:	03a75713          	srli	a4,a4,0x3a
    800000000450:	e5843683          	ld	a3,-424(s0)
    800000000454:	00669693          	slli	a3,a3,0x6
    800000000458:	e2d43423          	sd	a3,-472(s0)
    80000000045c:	e2843683          	ld	a3,-472(s0)
    800000000460:	00d76733          	or	a4,a4,a3
    800000000464:	e2e43423          	sd	a4,-472(s0)
    800000000468:	e5043703          	ld	a4,-432(s0)
    80000000046c:	00671713          	slli	a4,a4,0x6
    800000000470:	e2e43023          	sd	a4,-480(s0)
    800000000474:	00078713          	mv	a4,a5
    800000000478:	00170713          	addi	a4,a4,1
    80000000047c:	00371513          	slli	a0,a4,0x3
    800000000480:	f8043703          	ld	a4,-128(s0)
    800000000484:	fff70693          	addi	a3,a4,-1
    800000000488:	f4d43023          	sd	a3,-192(s0)
    80000000048c:	00078713          	mv	a4,a5
    800000000490:	00170713          	addi	a4,a4,1
    800000000494:	eae43023          	sd	a4,-352(s0)
    800000000498:	ea043423          	sd	zero,-344(s0)
    80000000049c:	00068713          	mv	a4,a3
    8000000004a0:	00170713          	addi	a4,a4,1
    8000000004a4:	e8e43823          	sd	a4,-368(s0)
    8000000004a8:	e8043c23          	sd	zero,-360(s0)
    8000000004ac:	ea843703          	ld	a4,-344(s0)
    8000000004b0:	e9043603          	ld	a2,-368(s0)
    8000000004b4:	02c70633          	mul	a2,a4,a2
    8000000004b8:	e9843703          	ld	a4,-360(s0)
    8000000004bc:	ea043583          	ld	a1,-352(s0)
    8000000004c0:	02b70733          	mul	a4,a4,a1
    8000000004c4:	00e60733          	add	a4,a2,a4
    8000000004c8:	ea043603          	ld	a2,-352(s0)
    8000000004cc:	e9043583          	ld	a1,-368(s0)
    8000000004d0:	02b605b3          	mul	a1,a2,a1
    8000000004d4:	ea043603          	ld	a2,-352(s0)
    8000000004d8:	e9043883          	ld	a7,-368(s0)
    8000000004dc:	03163633          	mulhu	a2,a2,a7
    8000000004e0:	f0b43023          	sd	a1,-256(s0)
    8000000004e4:	f0c43423          	sd	a2,-248(s0)
    8000000004e8:	f0843603          	ld	a2,-248(s0)
    8000000004ec:	00c70733          	add	a4,a4,a2
    8000000004f0:	f0e43423          	sd	a4,-248(s0)
    8000000004f4:	f0043703          	ld	a4,-256(s0)
    8000000004f8:	03a75713          	srli	a4,a4,0x3a
    8000000004fc:	f0843603          	ld	a2,-248(s0)
    800000000500:	00661613          	slli	a2,a2,0x6
    800000000504:	e0c43c23          	sd	a2,-488(s0)
    800000000508:	e1843603          	ld	a2,-488(s0)
    80000000050c:	00c76733          	or	a4,a4,a2
    800000000510:	e0e43c23          	sd	a4,-488(s0)
    800000000514:	f0043703          	ld	a4,-256(s0)
    800000000518:	00671713          	slli	a4,a4,0x6
    80000000051c:	e0e43823          	sd	a4,-496(s0)
    800000000520:	00078713          	mv	a4,a5
    800000000524:	00170713          	addi	a4,a4,1
    800000000528:	e8e43023          	sd	a4,-384(s0)
    80000000052c:	e8043423          	sd	zero,-376(s0)
    800000000530:	00068713          	mv	a4,a3
    800000000534:	00170713          	addi	a4,a4,1
    800000000538:	e6e43823          	sd	a4,-400(s0)
    80000000053c:	e6043c23          	sd	zero,-392(s0)
    800000000540:	e8843703          	ld	a4,-376(s0)
    800000000544:	e7043603          	ld	a2,-400(s0)
    800000000548:	02c70633          	mul	a2,a4,a2
    80000000054c:	e7843703          	ld	a4,-392(s0)
    800000000550:	e8043583          	ld	a1,-384(s0)
    800000000554:	02b70733          	mul	a4,a4,a1
    800000000558:	00e60733          	add	a4,a2,a4
    80000000055c:	e8043603          	ld	a2,-384(s0)
    800000000560:	e7043583          	ld	a1,-400(s0)
    800000000564:	02b605b3          	mul	a1,a2,a1
    800000000568:	e8043603          	ld	a2,-384(s0)
    80000000056c:	e7043883          	ld	a7,-400(s0)
    800000000570:	03163633          	mulhu	a2,a2,a7
    800000000574:	eeb43823          	sd	a1,-272(s0)
    800000000578:	eec43c23          	sd	a2,-264(s0)
    80000000057c:	ef843603          	ld	a2,-264(s0)
    800000000580:	00c70733          	add	a4,a4,a2
    800000000584:	eee43c23          	sd	a4,-264(s0)
    800000000588:	ef043703          	ld	a4,-272(s0)
    80000000058c:	03a75713          	srli	a4,a4,0x3a
    800000000590:	ef843603          	ld	a2,-264(s0)
    800000000594:	00661613          	slli	a2,a2,0x6
    800000000598:	e0c43423          	sd	a2,-504(s0)
    80000000059c:	e0843603          	ld	a2,-504(s0)
    8000000005a0:	00c76733          	or	a4,a4,a2
    8000000005a4:	e0e43423          	sd	a4,-504(s0)
    8000000005a8:	ef043703          	ld	a4,-272(s0)
    8000000005ac:	00671713          	slli	a4,a4,0x6
    8000000005b0:	e0e43023          	sd	a4,-512(s0)
    8000000005b4:	00078713          	mv	a4,a5
    8000000005b8:	00170613          	addi	a2,a4,1
    8000000005bc:	00068713          	mv	a4,a3
    8000000005c0:	00170713          	addi	a4,a4,1
    8000000005c4:	02e60733          	mul	a4,a2,a4
    8000000005c8:	00371713          	slli	a4,a4,0x3
    8000000005cc:	00f70713          	addi	a4,a4,15
    8000000005d0:	00475713          	srli	a4,a4,0x4
    8000000005d4:	00471713          	slli	a4,a4,0x4
    8000000005d8:	40e10133          	sub	sp,sp,a4
    8000000005dc:	00010713          	mv	a4,sp
    8000000005e0:	00770713          	addi	a4,a4,7
    8000000005e4:	00375713          	srli	a4,a4,0x3
    8000000005e8:	00371713          	slli	a4,a4,0x3
    8000000005ec:	f2e43c23          	sd	a4,-200(s0)
    8000000005f0:	f3843703          	ld	a4,-200(s0)
    8000000005f4:	00073023          	sd	zero,0(a4)
    8000000005f8:	00073423          	sd	zero,8(a4)
    8000000005fc:	00078613          	mv	a2,a5
    800000000600:	00160613          	addi	a2,a2,1
    800000000604:	00361613          	slli	a2,a2,0x3
    800000000608:	00c70733          	add	a4,a4,a2
    80000000060c:	fff68613          	addi	a2,a3,-1
    800000000610:	00073023          	sd	zero,0(a4)
    800000000614:	00073423          	sd	zero,8(a4)
    800000000618:	00078693          	mv	a3,a5
    80000000061c:	00168693          	addi	a3,a3,1
    800000000620:	00369693          	slli	a3,a3,0x3
    800000000624:	00d706b3          	add	a3,a4,a3
    800000000628:	fff60713          	addi	a4,a2,-1
    80000000062c:	02074c63          	bltz	a4,800000000664 <main+0x654>
    800000000630:	00068593          	mv	a1,a3
    800000000634:	00078613          	mv	a2,a5
    800000000638:	00064a63          	bltz	a2,80000000064c <main+0x63c>
    80000000063c:	0005b023          	sd	zero,0(a1)
    800000000640:	00858593          	addi	a1,a1,8
    800000000644:	fff60613          	addi	a2,a2,-1
    800000000648:	ff1ff06f          	j	800000000638 <main+0x628>
    80000000064c:	00078613          	mv	a2,a5
    800000000650:	00160613          	addi	a2,a2,1
    800000000654:	00361613          	slli	a2,a2,0x3
    800000000658:	00c686b3          	add	a3,a3,a2
    80000000065c:	fff70713          	addi	a4,a4,-1
    800000000660:	fcdff06f          	j	80000000062c <main+0x61c>
    800000000664:	f8043423          	sd	zero,-120(s0)
    800000000668:	f8843703          	ld	a4,-120(s0)
    80000000066c:	f8043783          	ld	a5,-128(s0)
    800000000670:	0ef75663          	bge	a4,a5,80000000075c <main+0x74c>
    800000000674:	f8043823          	sd	zero,-112(s0)
    800000000678:	f9043703          	ld	a4,-112(s0)
    80000000067c:	f8043783          	ld	a5,-128(s0)
    800000000680:	0cf75663          	bge	a4,a5,80000000074c <main+0x73c>
    800000000684:	f8043c23          	sd	zero,-104(s0)
    800000000688:	f9843703          	ld	a4,-104(s0)
    80000000068c:	f8043783          	ld	a5,-128(s0)
    800000000690:	0af75663          	bge	a4,a5,80000000073c <main+0x72c>
    800000000694:	00355693          	srli	a3,a0,0x3
    800000000698:	f3843703          	ld	a4,-200(s0)
    80000000069c:	f8843783          	ld	a5,-120(s0)
    8000000006a0:	02f686b3          	mul	a3,a3,a5
    8000000006a4:	f9043783          	ld	a5,-112(s0)
    8000000006a8:	00f687b3          	add	a5,a3,a5
    8000000006ac:	00379793          	slli	a5,a5,0x3
    8000000006b0:	00f707b3          	add	a5,a4,a5
    8000000006b4:	0007b703          	ld	a4,0(a5)
    8000000006b8:	0030d613          	srli	a2,ra,0x3
    8000000006bc:	f6843683          	ld	a3,-152(s0)
    8000000006c0:	f8843783          	ld	a5,-120(s0)
    8000000006c4:	02f60633          	mul	a2,a2,a5
    8000000006c8:	f9843783          	ld	a5,-104(s0)
    8000000006cc:	00f607b3          	add	a5,a2,a5
    8000000006d0:	00379793          	slli	a5,a5,0x3
    8000000006d4:	00f687b3          	add	a5,a3,a5
    8000000006d8:	0007b683          	ld	a3,0(a5)
    8000000006dc:	00385593          	srli	a1,a6,0x3
    8000000006e0:	f5043603          	ld	a2,-176(s0)
    8000000006e4:	f9843783          	ld	a5,-104(s0)
    8000000006e8:	02f585b3          	mul	a1,a1,a5
    8000000006ec:	f9043783          	ld	a5,-112(s0)
    8000000006f0:	00f587b3          	add	a5,a1,a5
    8000000006f4:	00379793          	slli	a5,a5,0x3
    8000000006f8:	00f607b3          	add	a5,a2,a5
    8000000006fc:	0007b783          	ld	a5,0(a5)
    800000000700:	02f687b3          	mul	a5,a3,a5
    800000000704:	00355613          	srli	a2,a0,0x3
    800000000708:	00f70733          	add	a4,a4,a5
    80000000070c:	f3843683          	ld	a3,-200(s0)
    800000000710:	f8843783          	ld	a5,-120(s0)
    800000000714:	02f60633          	mul	a2,a2,a5
    800000000718:	f9043783          	ld	a5,-112(s0)
    80000000071c:	00f607b3          	add	a5,a2,a5
    800000000720:	00379793          	slli	a5,a5,0x3
    800000000724:	00f687b3          	add	a5,a3,a5
    800000000728:	00e7b023          	sd	a4,0(a5)
    80000000072c:	f9843783          	ld	a5,-104(s0)
    800000000730:	00178793          	addi	a5,a5,1
    800000000734:	f8f43c23          	sd	a5,-104(s0)
    800000000738:	f51ff06f          	j	800000000688 <main+0x678>
    80000000073c:	f9043783          	ld	a5,-112(s0)
    800000000740:	00178793          	addi	a5,a5,1
    800000000744:	f8f43823          	sd	a5,-112(s0)
    800000000748:	f31ff06f          	j	800000000678 <main+0x668>
    80000000074c:	f8843783          	ld	a5,-120(s0)
    800000000750:	00178793          	addi	a5,a5,1
    800000000754:	f8f43423          	sd	a5,-120(s0)
    800000000758:	f11ff06f          	j	800000000668 <main+0x658>
    80000000075c:	0000006f          	j	80000000075c <main+0x74c>
