
main.elf:     file format elf64-littleriscv


Disassembly of section .text:

0000800000000000 <_TEXT_START_>:
    800000000000:	008002b7          	lui	t0,0x800
    800000000004:	0012829b          	addiw	t0,t0,1
    800000000008:	01029293          	slli	t0,t0,0x10
    80000000000c:	00028113          	mv	sp,t0
    800000000010:	0040006f          	j	800000000014 <main>

0000800000000014 <main>:
    800000000014:	e0010113          	addi	sp,sp,-512
    800000000018:	1e113c23          	sd	ra,504(sp)
    80000000001c:	1e813823          	sd	s0,496(sp)
    800000000020:	1f213423          	sd	s2,488(sp)
    800000000024:	1f313023          	sd	s3,480(sp)
    800000000028:	1d413c23          	sd	s4,472(sp)
    80000000002c:	1d513823          	sd	s5,464(sp)
    800000000030:	1d613423          	sd	s6,456(sp)
    800000000034:	1d713023          	sd	s7,448(sp)
    800000000038:	1b813c23          	sd	s8,440(sp)
    80000000003c:	1b913823          	sd	s9,432(sp)
    800000000040:	1ba13423          	sd	s10,424(sp)
    800000000044:	1bb13023          	sd	s11,416(sp)
    800000000048:	20010413          	addi	s0,sp,512
    80000000004c:	00200793          	li	a5,2
    800000000050:	f8f43023          	sd	a5,-128(s0)
    800000000054:	f8043783          	ld	a5,-128(s0)
    800000000058:	fff78293          	addi	t0,a5,-1
    80000000005c:	f6543c23          	sd	t0,-136(s0)
    800000000060:	00028793          	mv	a5,t0
    800000000064:	00178793          	addi	a5,a5,1
    800000000068:	00078513          	mv	a0,a5
    80000000006c:	00000593          	li	a1,0
    800000000070:	03a55793          	srli	a5,a0,0x3a
    800000000074:	00659693          	slli	a3,a1,0x6
    800000000078:	00d7e6b3          	or	a3,a5,a3
    80000000007c:	00651613          	slli	a2,a0,0x6
    800000000080:	00028793          	mv	a5,t0
    800000000084:	00178793          	addi	a5,a5,1
    800000000088:	00379093          	slli	ra,a5,0x3
    80000000008c:	f8043783          	ld	a5,-128(s0)
    800000000090:	fff78613          	addi	a2,a5,-1
    800000000094:	f6c43823          	sd	a2,-144(s0)
    800000000098:	00028793          	mv	a5,t0
    80000000009c:	00178793          	addi	a5,a5,1
    8000000000a0:	00078313          	mv	t1,a5
    8000000000a4:	00000393          	li	t2,0
    8000000000a8:	00060793          	mv	a5,a2
    8000000000ac:	00178793          	addi	a5,a5,1
    8000000000b0:	00078813          	mv	a6,a5
    8000000000b4:	00000893          	li	a7,0
    8000000000b8:	03038733          	mul	a4,t2,a6
    8000000000bc:	026887b3          	mul	a5,a7,t1
    8000000000c0:	00f706b3          	add	a3,a4,a5
    8000000000c4:	03030733          	mul	a4,t1,a6
    8000000000c8:	030337b3          	mulhu	a5,t1,a6
    8000000000cc:	00070e13          	mv	t3,a4
    8000000000d0:	00078e93          	mv	t4,a5
    8000000000d4:	01d687b3          	add	a5,a3,t4
    8000000000d8:	00078e93          	mv	t4,a5
    8000000000dc:	03ae5793          	srli	a5,t3,0x3a
    8000000000e0:	006e9f93          	slli	t6,t4,0x6
    8000000000e4:	01f7efb3          	or	t6,a5,t6
    8000000000e8:	006e1f13          	slli	t5,t3,0x6
    8000000000ec:	00028793          	mv	a5,t0
    8000000000f0:	00178793          	addi	a5,a5,1
    8000000000f4:	00078a13          	mv	s4,a5
    8000000000f8:	00000a93          	li	s5,0
    8000000000fc:	00060793          	mv	a5,a2
    800000000100:	00178793          	addi	a5,a5,1
    800000000104:	00078913          	mv	s2,a5
    800000000108:	00000993          	li	s3,0
    80000000010c:	032a8733          	mul	a4,s5,s2
    800000000110:	034987b3          	mul	a5,s3,s4
    800000000114:	00f706b3          	add	a3,a4,a5
    800000000118:	032a0733          	mul	a4,s4,s2
    80000000011c:	032a37b3          	mulhu	a5,s4,s2
    800000000120:	00070b13          	mv	s6,a4
    800000000124:	00078b93          	mv	s7,a5
    800000000128:	017687b3          	add	a5,a3,s7
    80000000012c:	00078b93          	mv	s7,a5
    800000000130:	03ab5793          	srli	a5,s6,0x3a
    800000000134:	006b9c93          	slli	s9,s7,0x6
    800000000138:	0197ecb3          	or	s9,a5,s9
    80000000013c:	006b1c13          	slli	s8,s6,0x6
    800000000140:	00028793          	mv	a5,t0
    800000000144:	00178713          	addi	a4,a5,1
    800000000148:	00060793          	mv	a5,a2
    80000000014c:	00178793          	addi	a5,a5,1
    800000000150:	02f707b3          	mul	a5,a4,a5
    800000000154:	00379793          	slli	a5,a5,0x3
    800000000158:	00f78793          	addi	a5,a5,15
    80000000015c:	0047d793          	srli	a5,a5,0x4
    800000000160:	00479793          	slli	a5,a5,0x4
    800000000164:	40f10133          	sub	sp,sp,a5
    800000000168:	00010793          	mv	a5,sp
    80000000016c:	00778793          	addi	a5,a5,7
    800000000170:	0037d793          	srli	a5,a5,0x3
    800000000174:	00379793          	slli	a5,a5,0x3
    800000000178:	f6f43423          	sd	a5,-152(s0)
    80000000017c:	f6843703          	ld	a4,-152(s0)
    800000000180:	00100793          	li	a5,1
    800000000184:	00f73023          	sd	a5,0(a4)
    800000000188:	00200793          	li	a5,2
    80000000018c:	00f73423          	sd	a5,8(a4)
    800000000190:	00028793          	mv	a5,t0
    800000000194:	00178793          	addi	a5,a5,1
    800000000198:	00379793          	slli	a5,a5,0x3
    80000000019c:	00f70733          	add	a4,a4,a5
    8000000001a0:	fff60693          	addi	a3,a2,-1
    8000000001a4:	00300793          	li	a5,3
    8000000001a8:	00f73023          	sd	a5,0(a4)
    8000000001ac:	00400793          	li	a5,4
    8000000001b0:	00f73423          	sd	a5,8(a4)
    8000000001b4:	00028793          	mv	a5,t0
    8000000001b8:	00178793          	addi	a5,a5,1
    8000000001bc:	00379793          	slli	a5,a5,0x3
    8000000001c0:	00f70633          	add	a2,a4,a5
    8000000001c4:	fff68693          	addi	a3,a3,-1
    8000000001c8:	0206cc63          	bltz	a3,800000000200 <main+0x1ec>
    8000000001cc:	00060713          	mv	a4,a2
    8000000001d0:	00028793          	mv	a5,t0
    8000000001d4:	0007ca63          	bltz	a5,8000000001e8 <main+0x1d4>
    8000000001d8:	00073023          	sd	zero,0(a4)
    8000000001dc:	00870713          	addi	a4,a4,8
    8000000001e0:	fff78793          	addi	a5,a5,-1
    8000000001e4:	ff1ff06f          	j	8000000001d4 <main+0x1c0>
    8000000001e8:	00028793          	mv	a5,t0
    8000000001ec:	00178793          	addi	a5,a5,1
    8000000001f0:	00379793          	slli	a5,a5,0x3
    8000000001f4:	00f60633          	add	a2,a2,a5
    8000000001f8:	fff68693          	addi	a3,a3,-1
    8000000001fc:	fcdff06f          	j	8000000001c8 <main+0x1b4>
    800000000200:	f8043783          	ld	a5,-128(s0)
    800000000204:	fff78593          	addi	a1,a5,-1
    800000000208:	f6b43023          	sd	a1,-160(s0)
    80000000020c:	00058793          	mv	a5,a1
    800000000210:	00178793          	addi	a5,a5,1
    800000000214:	e6f43023          	sd	a5,-416(s0)
    800000000218:	e6043423          	sd	zero,-408(s0)
    80000000021c:	e6043783          	ld	a5,-416(s0)
    800000000220:	03a7d793          	srli	a5,a5,0x3a
    800000000224:	e6843703          	ld	a4,-408(s0)
    800000000228:	00671d93          	slli	s11,a4,0x6
    80000000022c:	01b7edb3          	or	s11,a5,s11
    800000000230:	e6043783          	ld	a5,-416(s0)
    800000000234:	00679d13          	slli	s10,a5,0x6
    800000000238:	00058793          	mv	a5,a1
    80000000023c:	00178793          	addi	a5,a5,1
    800000000240:	00379813          	slli	a6,a5,0x3
    800000000244:	f8043783          	ld	a5,-128(s0)
    800000000248:	fff78613          	addi	a2,a5,-1
    80000000024c:	f4c43c23          	sd	a2,-168(s0)
    800000000250:	00058793          	mv	a5,a1
    800000000254:	00178793          	addi	a5,a5,1
    800000000258:	eef43023          	sd	a5,-288(s0)
    80000000025c:	ee043423          	sd	zero,-280(s0)
    800000000260:	00060793          	mv	a5,a2
    800000000264:	00178793          	addi	a5,a5,1
    800000000268:	ecf43823          	sd	a5,-304(s0)
    80000000026c:	ec043c23          	sd	zero,-296(s0)
    800000000270:	ee843783          	ld	a5,-280(s0)
    800000000274:	ed043703          	ld	a4,-304(s0)
    800000000278:	02e78733          	mul	a4,a5,a4
    80000000027c:	ed843783          	ld	a5,-296(s0)
    800000000280:	ee043683          	ld	a3,-288(s0)
    800000000284:	02d787b3          	mul	a5,a5,a3
    800000000288:	00f706b3          	add	a3,a4,a5
    80000000028c:	ee043783          	ld	a5,-288(s0)
    800000000290:	ed043703          	ld	a4,-304(s0)
    800000000294:	02e78733          	mul	a4,a5,a4
    800000000298:	ee043783          	ld	a5,-288(s0)
    80000000029c:	ed043503          	ld	a0,-304(s0)
    8000000002a0:	02a7b7b3          	mulhu	a5,a5,a0
    8000000002a4:	f2e43023          	sd	a4,-224(s0)
    8000000002a8:	f2f43423          	sd	a5,-216(s0)
    8000000002ac:	f2843783          	ld	a5,-216(s0)
    8000000002b0:	00f687b3          	add	a5,a3,a5
    8000000002b4:	f2f43423          	sd	a5,-216(s0)
    8000000002b8:	f2043783          	ld	a5,-224(s0)
    8000000002bc:	03a7d793          	srli	a5,a5,0x3a
    8000000002c0:	f2843703          	ld	a4,-216(s0)
    8000000002c4:	00671713          	slli	a4,a4,0x6
    8000000002c8:	e4e43423          	sd	a4,-440(s0)
    8000000002cc:	e4843703          	ld	a4,-440(s0)
    8000000002d0:	00e7e7b3          	or	a5,a5,a4
    8000000002d4:	e4f43423          	sd	a5,-440(s0)
    8000000002d8:	f2043783          	ld	a5,-224(s0)
    8000000002dc:	00679793          	slli	a5,a5,0x6
    8000000002e0:	e4f43023          	sd	a5,-448(s0)
    8000000002e4:	00058793          	mv	a5,a1
    8000000002e8:	00178793          	addi	a5,a5,1
    8000000002ec:	ecf43023          	sd	a5,-320(s0)
    8000000002f0:	ec043423          	sd	zero,-312(s0)
    8000000002f4:	00060793          	mv	a5,a2
    8000000002f8:	00178793          	addi	a5,a5,1
    8000000002fc:	eaf43823          	sd	a5,-336(s0)
    800000000300:	ea043c23          	sd	zero,-328(s0)
    800000000304:	ec843783          	ld	a5,-312(s0)
    800000000308:	eb043703          	ld	a4,-336(s0)
    80000000030c:	02e78733          	mul	a4,a5,a4
    800000000310:	eb843783          	ld	a5,-328(s0)
    800000000314:	ec043683          	ld	a3,-320(s0)
    800000000318:	02d787b3          	mul	a5,a5,a3
    80000000031c:	00f706b3          	add	a3,a4,a5
    800000000320:	ec043783          	ld	a5,-320(s0)
    800000000324:	eb043703          	ld	a4,-336(s0)
    800000000328:	02e78733          	mul	a4,a5,a4
    80000000032c:	ec043783          	ld	a5,-320(s0)
    800000000330:	eb043503          	ld	a0,-336(s0)
    800000000334:	02a7b7b3          	mulhu	a5,a5,a0
    800000000338:	f0e43823          	sd	a4,-240(s0)
    80000000033c:	f0f43c23          	sd	a5,-232(s0)
    800000000340:	f1843783          	ld	a5,-232(s0)
    800000000344:	00f687b3          	add	a5,a3,a5
    800000000348:	f0f43c23          	sd	a5,-232(s0)
    80000000034c:	f1043783          	ld	a5,-240(s0)
    800000000350:	03a7d793          	srli	a5,a5,0x3a
    800000000354:	f1843703          	ld	a4,-232(s0)
    800000000358:	00671713          	slli	a4,a4,0x6
    80000000035c:	e2e43c23          	sd	a4,-456(s0)
    800000000360:	e3843703          	ld	a4,-456(s0)
    800000000364:	00e7e7b3          	or	a5,a5,a4
    800000000368:	e2f43c23          	sd	a5,-456(s0)
    80000000036c:	f1043783          	ld	a5,-240(s0)
    800000000370:	00679793          	slli	a5,a5,0x6
    800000000374:	e2f43823          	sd	a5,-464(s0)
    800000000378:	00058793          	mv	a5,a1
    80000000037c:	00178713          	addi	a4,a5,1
    800000000380:	00060793          	mv	a5,a2
    800000000384:	00178793          	addi	a5,a5,1
    800000000388:	02f707b3          	mul	a5,a4,a5
    80000000038c:	00379793          	slli	a5,a5,0x3
    800000000390:	00f78793          	addi	a5,a5,15
    800000000394:	0047d793          	srli	a5,a5,0x4
    800000000398:	00479793          	slli	a5,a5,0x4
    80000000039c:	40f10133          	sub	sp,sp,a5
    8000000003a0:	00010793          	mv	a5,sp
    8000000003a4:	00778793          	addi	a5,a5,7
    8000000003a8:	0037d793          	srli	a5,a5,0x3
    8000000003ac:	00379793          	slli	a5,a5,0x3
    8000000003b0:	f4f43823          	sd	a5,-176(s0)
    8000000003b4:	f5043783          	ld	a5,-176(s0)
    8000000003b8:	00200713          	li	a4,2
    8000000003bc:	00e7b023          	sd	a4,0(a5)
    8000000003c0:	0007b423          	sd	zero,8(a5)
    8000000003c4:	00058713          	mv	a4,a1
    8000000003c8:	00170713          	addi	a4,a4,1
    8000000003cc:	00371713          	slli	a4,a4,0x3
    8000000003d0:	00e787b3          	add	a5,a5,a4
    8000000003d4:	fff60693          	addi	a3,a2,-1
    8000000003d8:	0007b023          	sd	zero,0(a5)
    8000000003dc:	00200713          	li	a4,2
    8000000003e0:	00e7b423          	sd	a4,8(a5)
    8000000003e4:	00058713          	mv	a4,a1
    8000000003e8:	00170713          	addi	a4,a4,1
    8000000003ec:	00371713          	slli	a4,a4,0x3
    8000000003f0:	00e78733          	add	a4,a5,a4
    8000000003f4:	fff68793          	addi	a5,a3,-1
    8000000003f8:	0207cc63          	bltz	a5,800000000430 <main+0x41c>
    8000000003fc:	00070613          	mv	a2,a4
    800000000400:	00058693          	mv	a3,a1
    800000000404:	0006ca63          	bltz	a3,800000000418 <main+0x404>
    800000000408:	00063023          	sd	zero,0(a2)
    80000000040c:	00860613          	addi	a2,a2,8
    800000000410:	fff68693          	addi	a3,a3,-1
    800000000414:	ff1ff06f          	j	800000000404 <main+0x3f0>
    800000000418:	00058693          	mv	a3,a1
    80000000041c:	00168693          	addi	a3,a3,1
    800000000420:	00369693          	slli	a3,a3,0x3
    800000000424:	00d70733          	add	a4,a4,a3
    800000000428:	fff78793          	addi	a5,a5,-1
    80000000042c:	fcdff06f          	j	8000000003f8 <main+0x3e4>
    800000000430:	f8043783          	ld	a5,-128(s0)
    800000000434:	fff78793          	addi	a5,a5,-1
    800000000438:	f4f43423          	sd	a5,-184(s0)
    80000000043c:	00078713          	mv	a4,a5
    800000000440:	00170713          	addi	a4,a4,1
    800000000444:	e4e43823          	sd	a4,-432(s0)
    800000000448:	e4043c23          	sd	zero,-424(s0)
    80000000044c:	e5043703          	ld	a4,-432(s0)
    800000000450:	03a75713          	srli	a4,a4,0x3a
    800000000454:	e5843683          	ld	a3,-424(s0)
    800000000458:	00669693          	slli	a3,a3,0x6
    80000000045c:	e2d43423          	sd	a3,-472(s0)
    800000000460:	e2843683          	ld	a3,-472(s0)
    800000000464:	00d76733          	or	a4,a4,a3
    800000000468:	e2e43423          	sd	a4,-472(s0)
    80000000046c:	e5043703          	ld	a4,-432(s0)
    800000000470:	00671713          	slli	a4,a4,0x6
    800000000474:	e2e43023          	sd	a4,-480(s0)
    800000000478:	00078713          	mv	a4,a5
    80000000047c:	00170713          	addi	a4,a4,1
    800000000480:	00371513          	slli	a0,a4,0x3
    800000000484:	f8043703          	ld	a4,-128(s0)
    800000000488:	fff70693          	addi	a3,a4,-1
    80000000048c:	f4d43023          	sd	a3,-192(s0)
    800000000490:	00078713          	mv	a4,a5
    800000000494:	00170713          	addi	a4,a4,1
    800000000498:	eae43023          	sd	a4,-352(s0)
    80000000049c:	ea043423          	sd	zero,-344(s0)
    8000000004a0:	00068713          	mv	a4,a3
    8000000004a4:	00170713          	addi	a4,a4,1
    8000000004a8:	e8e43823          	sd	a4,-368(s0)
    8000000004ac:	e8043c23          	sd	zero,-360(s0)
    8000000004b0:	ea843703          	ld	a4,-344(s0)
    8000000004b4:	e9043603          	ld	a2,-368(s0)
    8000000004b8:	02c70633          	mul	a2,a4,a2
    8000000004bc:	e9843703          	ld	a4,-360(s0)
    8000000004c0:	ea043583          	ld	a1,-352(s0)
    8000000004c4:	02b70733          	mul	a4,a4,a1
    8000000004c8:	00e60733          	add	a4,a2,a4
    8000000004cc:	ea043603          	ld	a2,-352(s0)
    8000000004d0:	e9043583          	ld	a1,-368(s0)
    8000000004d4:	02b605b3          	mul	a1,a2,a1
    8000000004d8:	ea043603          	ld	a2,-352(s0)
    8000000004dc:	e9043883          	ld	a7,-368(s0)
    8000000004e0:	03163633          	mulhu	a2,a2,a7
    8000000004e4:	f0b43023          	sd	a1,-256(s0)
    8000000004e8:	f0c43423          	sd	a2,-248(s0)
    8000000004ec:	f0843603          	ld	a2,-248(s0)
    8000000004f0:	00c70733          	add	a4,a4,a2
    8000000004f4:	f0e43423          	sd	a4,-248(s0)
    8000000004f8:	f0043703          	ld	a4,-256(s0)
    8000000004fc:	03a75713          	srli	a4,a4,0x3a
    800000000500:	f0843603          	ld	a2,-248(s0)
    800000000504:	00661613          	slli	a2,a2,0x6
    800000000508:	e0c43c23          	sd	a2,-488(s0)
    80000000050c:	e1843603          	ld	a2,-488(s0)
    800000000510:	00c76733          	or	a4,a4,a2
    800000000514:	e0e43c23          	sd	a4,-488(s0)
    800000000518:	f0043703          	ld	a4,-256(s0)
    80000000051c:	00671713          	slli	a4,a4,0x6
    800000000520:	e0e43823          	sd	a4,-496(s0)
    800000000524:	00078713          	mv	a4,a5
    800000000528:	00170713          	addi	a4,a4,1
    80000000052c:	e8e43023          	sd	a4,-384(s0)
    800000000530:	e8043423          	sd	zero,-376(s0)
    800000000534:	00068713          	mv	a4,a3
    800000000538:	00170713          	addi	a4,a4,1
    80000000053c:	e6e43823          	sd	a4,-400(s0)
    800000000540:	e6043c23          	sd	zero,-392(s0)
    800000000544:	e8843703          	ld	a4,-376(s0)
    800000000548:	e7043603          	ld	a2,-400(s0)
    80000000054c:	02c70633          	mul	a2,a4,a2
    800000000550:	e7843703          	ld	a4,-392(s0)
    800000000554:	e8043583          	ld	a1,-384(s0)
    800000000558:	02b70733          	mul	a4,a4,a1
    80000000055c:	00e60733          	add	a4,a2,a4
    800000000560:	e8043603          	ld	a2,-384(s0)
    800000000564:	e7043583          	ld	a1,-400(s0)
    800000000568:	02b605b3          	mul	a1,a2,a1
    80000000056c:	e8043603          	ld	a2,-384(s0)
    800000000570:	e7043883          	ld	a7,-400(s0)
    800000000574:	03163633          	mulhu	a2,a2,a7
    800000000578:	eeb43823          	sd	a1,-272(s0)
    80000000057c:	eec43c23          	sd	a2,-264(s0)
    800000000580:	ef843603          	ld	a2,-264(s0)
    800000000584:	00c70733          	add	a4,a4,a2
    800000000588:	eee43c23          	sd	a4,-264(s0)
    80000000058c:	ef043703          	ld	a4,-272(s0)
    800000000590:	03a75713          	srli	a4,a4,0x3a
    800000000594:	ef843603          	ld	a2,-264(s0)
    800000000598:	00661613          	slli	a2,a2,0x6
    80000000059c:	e0c43423          	sd	a2,-504(s0)
    8000000005a0:	e0843603          	ld	a2,-504(s0)
    8000000005a4:	00c76733          	or	a4,a4,a2
    8000000005a8:	e0e43423          	sd	a4,-504(s0)
    8000000005ac:	ef043703          	ld	a4,-272(s0)
    8000000005b0:	00671713          	slli	a4,a4,0x6
    8000000005b4:	e0e43023          	sd	a4,-512(s0)
    8000000005b8:	00078713          	mv	a4,a5
    8000000005bc:	00170613          	addi	a2,a4,1
    8000000005c0:	00068713          	mv	a4,a3
    8000000005c4:	00170713          	addi	a4,a4,1
    8000000005c8:	02e60733          	mul	a4,a2,a4
    8000000005cc:	00371713          	slli	a4,a4,0x3
    8000000005d0:	00f70713          	addi	a4,a4,15
    8000000005d4:	00475713          	srli	a4,a4,0x4
    8000000005d8:	00471713          	slli	a4,a4,0x4
    8000000005dc:	40e10133          	sub	sp,sp,a4
    8000000005e0:	00010713          	mv	a4,sp
    8000000005e4:	00770713          	addi	a4,a4,7
    8000000005e8:	00375713          	srli	a4,a4,0x3
    8000000005ec:	00371713          	slli	a4,a4,0x3
    8000000005f0:	f2e43c23          	sd	a4,-200(s0)
    8000000005f4:	f3843703          	ld	a4,-200(s0)
    8000000005f8:	00073023          	sd	zero,0(a4)
    8000000005fc:	00073423          	sd	zero,8(a4)
    800000000600:	00078613          	mv	a2,a5
    800000000604:	00160613          	addi	a2,a2,1
    800000000608:	00361613          	slli	a2,a2,0x3
    80000000060c:	00c70733          	add	a4,a4,a2
    800000000610:	fff68613          	addi	a2,a3,-1
    800000000614:	00073023          	sd	zero,0(a4)
    800000000618:	00073423          	sd	zero,8(a4)
    80000000061c:	00078693          	mv	a3,a5
    800000000620:	00168693          	addi	a3,a3,1
    800000000624:	00369693          	slli	a3,a3,0x3
    800000000628:	00d706b3          	add	a3,a4,a3
    80000000062c:	fff60713          	addi	a4,a2,-1
    800000000630:	02074c63          	bltz	a4,800000000668 <main+0x654>
    800000000634:	00068593          	mv	a1,a3
    800000000638:	00078613          	mv	a2,a5
    80000000063c:	00064a63          	bltz	a2,800000000650 <main+0x63c>
    800000000640:	0005b023          	sd	zero,0(a1)
    800000000644:	00858593          	addi	a1,a1,8
    800000000648:	fff60613          	addi	a2,a2,-1
    80000000064c:	ff1ff06f          	j	80000000063c <main+0x628>
    800000000650:	00078613          	mv	a2,a5
    800000000654:	00160613          	addi	a2,a2,1
    800000000658:	00361613          	slli	a2,a2,0x3
    80000000065c:	00c686b3          	add	a3,a3,a2
    800000000660:	fff70713          	addi	a4,a4,-1
    800000000664:	fcdff06f          	j	800000000630 <main+0x61c>
    800000000668:	f8043423          	sd	zero,-120(s0)
    80000000066c:	f8843703          	ld	a4,-120(s0)
    800000000670:	f8043783          	ld	a5,-128(s0)
    800000000674:	0ef75663          	bge	a4,a5,800000000760 <main+0x74c>
    800000000678:	f8043823          	sd	zero,-112(s0)
    80000000067c:	f9043703          	ld	a4,-112(s0)
    800000000680:	f8043783          	ld	a5,-128(s0)
    800000000684:	0cf75663          	bge	a4,a5,800000000750 <main+0x73c>
    800000000688:	f8043c23          	sd	zero,-104(s0)
    80000000068c:	f9843703          	ld	a4,-104(s0)
    800000000690:	f8043783          	ld	a5,-128(s0)
    800000000694:	0af75663          	bge	a4,a5,800000000740 <main+0x72c>
    800000000698:	00355693          	srli	a3,a0,0x3
    80000000069c:	f3843703          	ld	a4,-200(s0)
    8000000006a0:	f8843783          	ld	a5,-120(s0)
    8000000006a4:	02f686b3          	mul	a3,a3,a5
    8000000006a8:	f9043783          	ld	a5,-112(s0)
    8000000006ac:	00f687b3          	add	a5,a3,a5
    8000000006b0:	00379793          	slli	a5,a5,0x3
    8000000006b4:	00f707b3          	add	a5,a4,a5
    8000000006b8:	0007b703          	ld	a4,0(a5)
    8000000006bc:	0030d613          	srli	a2,ra,0x3
    8000000006c0:	f6843683          	ld	a3,-152(s0)
    8000000006c4:	f8843783          	ld	a5,-120(s0)
    8000000006c8:	02f60633          	mul	a2,a2,a5
    8000000006cc:	f9843783          	ld	a5,-104(s0)
    8000000006d0:	00f607b3          	add	a5,a2,a5
    8000000006d4:	00379793          	slli	a5,a5,0x3
    8000000006d8:	00f687b3          	add	a5,a3,a5
    8000000006dc:	0007b683          	ld	a3,0(a5)
    8000000006e0:	00385593          	srli	a1,a6,0x3
    8000000006e4:	f5043603          	ld	a2,-176(s0)
    8000000006e8:	f9843783          	ld	a5,-104(s0)
    8000000006ec:	02f585b3          	mul	a1,a1,a5
    8000000006f0:	f9043783          	ld	a5,-112(s0)
    8000000006f4:	00f587b3          	add	a5,a1,a5
    8000000006f8:	00379793          	slli	a5,a5,0x3
    8000000006fc:	00f607b3          	add	a5,a2,a5
    800000000700:	0007b783          	ld	a5,0(a5)
    800000000704:	02f687b3          	mul	a5,a3,a5
    800000000708:	00355613          	srli	a2,a0,0x3
    80000000070c:	00f70733          	add	a4,a4,a5
    800000000710:	f3843683          	ld	a3,-200(s0)
    800000000714:	f8843783          	ld	a5,-120(s0)
    800000000718:	02f60633          	mul	a2,a2,a5
    80000000071c:	f9043783          	ld	a5,-112(s0)
    800000000720:	00f607b3          	add	a5,a2,a5
    800000000724:	00379793          	slli	a5,a5,0x3
    800000000728:	00f687b3          	add	a5,a3,a5
    80000000072c:	00e7b023          	sd	a4,0(a5)
    800000000730:	f9843783          	ld	a5,-104(s0)
    800000000734:	00178793          	addi	a5,a5,1
    800000000738:	f8f43c23          	sd	a5,-104(s0)
    80000000073c:	f51ff06f          	j	80000000068c <main+0x678>
    800000000740:	f9043783          	ld	a5,-112(s0)
    800000000744:	00178793          	addi	a5,a5,1
    800000000748:	f8f43823          	sd	a5,-112(s0)
    80000000074c:	f31ff06f          	j	80000000067c <main+0x668>
    800000000750:	f8843783          	ld	a5,-120(s0)
    800000000754:	00178793          	addi	a5,a5,1
    800000000758:	f8f43423          	sd	a5,-120(s0)
    80000000075c:	f11ff06f          	j	80000000066c <main+0x658>
    800000000760:	0000006f          	j	800000000760 <main+0x74c>
