
main.elf:     file format elf64-littleriscv


Disassembly of section .text:

0000800000000000 <_TEXT_START_>:
    800000000000:	008002b7          	lui	t0,0x800
    800000000004:	0012829b          	addiw	t0,t0,1
    800000000008:	01029293          	slli	t0,t0,0x10
    80000000000c:	00028113          	mv	sp,t0
    800000000010:	4340006f          	j	800000000444 <main>

0000800000000014 <_Z12write_reg_u8mh>:
    800000000014:	fd010113          	addi	sp,sp,-48
    800000000018:	02813423          	sd	s0,40(sp)
    80000000001c:	03010413          	addi	s0,sp,48
    800000000020:	fca43c23          	sd	a0,-40(s0)
    800000000024:	00058793          	mv	a5,a1
    800000000028:	fcf40ba3          	sb	a5,-41(s0)
    80000000002c:	fd843783          	ld	a5,-40(s0)
    800000000030:	fef43423          	sd	a5,-24(s0)
    800000000034:	fe843783          	ld	a5,-24(s0)
    800000000038:	fd744703          	lbu	a4,-41(s0)
    80000000003c:	00e78023          	sb	a4,0(a5)
    800000000040:	00000013          	nop
    800000000044:	02813403          	ld	s0,40(sp)
    800000000048:	03010113          	addi	sp,sp,48
    80000000004c:	00008067          	ret

0000800000000050 <_Z11read_reg_u8m>:
    800000000050:	fe010113          	addi	sp,sp,-32
    800000000054:	00813c23          	sd	s0,24(sp)
    800000000058:	02010413          	addi	s0,sp,32
    80000000005c:	fea43423          	sd	a0,-24(s0)
    800000000060:	fe843783          	ld	a5,-24(s0)
    800000000064:	0007c783          	lbu	a5,0(a5)
    800000000068:	0ff7f793          	andi	a5,a5,255
    80000000006c:	00078513          	mv	a0,a5
    800000000070:	01813403          	ld	s0,24(sp)
    800000000074:	02010113          	addi	sp,sp,32
    800000000078:	00008067          	ret

000080000000007c <_Z17is_transmit_emptyv>:
    80000000007c:	ff010113          	addi	sp,sp,-16
    800000000080:	00113423          	sd	ra,8(sp)
    800000000084:	00813023          	sd	s0,0(sp)
    800000000088:	01010413          	addi	s0,sp,16
    80000000008c:	100007b7          	lui	a5,0x10000
    800000000090:	01478513          	addi	a0,a5,20 # 10000014 <_TEXT_START_-0x7fffefffffec>
    800000000094:	fbdff0ef          	jal	ra,800000000050 <_Z11read_reg_u8m>
    800000000098:	00050793          	mv	a5,a0
    80000000009c:	0007879b          	sext.w	a5,a5
    8000000000a0:	0207f793          	andi	a5,a5,32
    8000000000a4:	0007879b          	sext.w	a5,a5
    8000000000a8:	00078513          	mv	a0,a5
    8000000000ac:	00813083          	ld	ra,8(sp)
    8000000000b0:	00013403          	ld	s0,0(sp)
    8000000000b4:	01010113          	addi	sp,sp,16
    8000000000b8:	00008067          	ret

00008000000000bc <_Z12write_serialc>:
    8000000000bc:	fe010113          	addi	sp,sp,-32
    8000000000c0:	00113c23          	sd	ra,24(sp)
    8000000000c4:	00813823          	sd	s0,16(sp)
    8000000000c8:	02010413          	addi	s0,sp,32
    8000000000cc:	00050793          	mv	a5,a0
    8000000000d0:	fef407a3          	sb	a5,-17(s0)
    8000000000d4:	fa9ff0ef          	jal	ra,80000000007c <_Z17is_transmit_emptyv>
    8000000000d8:	00050793          	mv	a5,a0
    8000000000dc:	0017b793          	seqz	a5,a5
    8000000000e0:	0ff7f793          	andi	a5,a5,255
    8000000000e4:	00078463          	beqz	a5,8000000000ec <_Z12write_serialc+0x30>
    8000000000e8:	fedff06f          	j	8000000000d4 <_Z12write_serialc+0x18>
    8000000000ec:	fef44783          	lbu	a5,-17(s0)
    8000000000f0:	00078593          	mv	a1,a5
    8000000000f4:	10000537          	lui	a0,0x10000
    8000000000f8:	f1dff0ef          	jal	ra,800000000014 <_Z12write_reg_u8mh>
    8000000000fc:	00000013          	nop
    800000000100:	01813083          	ld	ra,24(sp)
    800000000104:	01013403          	ld	s0,16(sp)
    800000000108:	02010113          	addi	sp,sp,32
    80000000010c:	00008067          	ret

0000800000000110 <_Z9init_uartjj>:
    800000000110:	fd010113          	addi	sp,sp,-48
    800000000114:	02113423          	sd	ra,40(sp)
    800000000118:	02813023          	sd	s0,32(sp)
    80000000011c:	03010413          	addi	s0,sp,48
    800000000120:	00050793          	mv	a5,a0
    800000000124:	00058713          	mv	a4,a1
    800000000128:	fcf42e23          	sw	a5,-36(s0)
    80000000012c:	00070793          	mv	a5,a4
    800000000130:	fcf42c23          	sw	a5,-40(s0)
    800000000134:	fd842783          	lw	a5,-40(s0)
    800000000138:	0047979b          	slliw	a5,a5,0x4
    80000000013c:	0007879b          	sext.w	a5,a5
    800000000140:	fdc42703          	lw	a4,-36(s0)
    800000000144:	02f757bb          	divuw	a5,a4,a5
    800000000148:	fef42623          	sw	a5,-20(s0)
    80000000014c:	00000593          	li	a1,0
    800000000150:	100007b7          	lui	a5,0x10000
    800000000154:	00478513          	addi	a0,a5,4 # 10000004 <_TEXT_START_-0x7fffeffffffc>
    800000000158:	ebdff0ef          	jal	ra,800000000014 <_Z12write_reg_u8mh>
    80000000015c:	08000593          	li	a1,128
    800000000160:	100007b7          	lui	a5,0x10000
    800000000164:	00c78513          	addi	a0,a5,12 # 1000000c <_TEXT_START_-0x7fffeffffff4>
    800000000168:	eadff0ef          	jal	ra,800000000014 <_Z12write_reg_u8mh>
    80000000016c:	fec42783          	lw	a5,-20(s0)
    800000000170:	0ff7f793          	andi	a5,a5,255
    800000000174:	00078593          	mv	a1,a5
    800000000178:	10000537          	lui	a0,0x10000
    80000000017c:	e99ff0ef          	jal	ra,800000000014 <_Z12write_reg_u8mh>
    800000000180:	fec42783          	lw	a5,-20(s0)
    800000000184:	0087d79b          	srliw	a5,a5,0x8
    800000000188:	0007879b          	sext.w	a5,a5
    80000000018c:	0ff7f793          	andi	a5,a5,255
    800000000190:	00078593          	mv	a1,a5
    800000000194:	100007b7          	lui	a5,0x10000
    800000000198:	00478513          	addi	a0,a5,4 # 10000004 <_TEXT_START_-0x7fffeffffffc>
    80000000019c:	e79ff0ef          	jal	ra,800000000014 <_Z12write_reg_u8mh>
    8000000001a0:	00300593          	li	a1,3
    8000000001a4:	100007b7          	lui	a5,0x10000
    8000000001a8:	00c78513          	addi	a0,a5,12 # 1000000c <_TEXT_START_-0x7fffeffffff4>
    8000000001ac:	e69ff0ef          	jal	ra,800000000014 <_Z12write_reg_u8mh>
    8000000001b0:	0c700593          	li	a1,199
    8000000001b4:	100007b7          	lui	a5,0x10000
    8000000001b8:	00878513          	addi	a0,a5,8 # 10000008 <_TEXT_START_-0x7fffeffffff8>
    8000000001bc:	e59ff0ef          	jal	ra,800000000014 <_Z12write_reg_u8mh>
    8000000001c0:	02000593          	li	a1,32
    8000000001c4:	100007b7          	lui	a5,0x10000
    8000000001c8:	01078513          	addi	a0,a5,16 # 10000010 <_TEXT_START_-0x7fffeffffff0>
    8000000001cc:	e49ff0ef          	jal	ra,800000000014 <_Z12write_reg_u8mh>
    8000000001d0:	00000013          	nop
    8000000001d4:	02813083          	ld	ra,40(sp)
    8000000001d8:	02013403          	ld	s0,32(sp)
    8000000001dc:	03010113          	addi	sp,sp,48
    8000000001e0:	00008067          	ret

00008000000001e4 <_Z10print_uartPKc>:
    8000000001e4:	fd010113          	addi	sp,sp,-48
    8000000001e8:	02113423          	sd	ra,40(sp)
    8000000001ec:	02813023          	sd	s0,32(sp)
    8000000001f0:	03010413          	addi	s0,sp,48
    8000000001f4:	fca43c23          	sd	a0,-40(s0)
    8000000001f8:	fd843783          	ld	a5,-40(s0)
    8000000001fc:	fef43423          	sd	a5,-24(s0)
    800000000200:	fe843783          	ld	a5,-24(s0)
    800000000204:	0007c783          	lbu	a5,0(a5)
    800000000208:	02078263          	beqz	a5,80000000022c <_Z10print_uartPKc+0x48>
    80000000020c:	fe843783          	ld	a5,-24(s0)
    800000000210:	0007c783          	lbu	a5,0(a5)
    800000000214:	00078513          	mv	a0,a5
    800000000218:	ea5ff0ef          	jal	ra,8000000000bc <_Z12write_serialc>
    80000000021c:	fe843783          	ld	a5,-24(s0)
    800000000220:	00178793          	addi	a5,a5,1
    800000000224:	fef43423          	sd	a5,-24(s0)
    800000000228:	fd9ff06f          	j	800000000200 <_Z10print_uartPKc+0x1c>
    80000000022c:	00000013          	nop
    800000000230:	02813083          	ld	ra,40(sp)
    800000000234:	02013403          	ld	s0,32(sp)
    800000000238:	03010113          	addi	sp,sp,48
    80000000023c:	00008067          	ret

0000800000000240 <_Z10bin_to_hexhPh>:
    800000000240:	fe010113          	addi	sp,sp,-32
    800000000244:	00813c23          	sd	s0,24(sp)
    800000000248:	02010413          	addi	s0,sp,32
    80000000024c:	00050793          	mv	a5,a0
    800000000250:	feb43023          	sd	a1,-32(s0)
    800000000254:	fef407a3          	sb	a5,-17(s0)
    800000000258:	fef44783          	lbu	a5,-17(s0)
    80000000025c:	0007879b          	sext.w	a5,a5
    800000000260:	00f7f793          	andi	a5,a5,15
    800000000264:	0007871b          	sext.w	a4,a5
    800000000268:	fe043783          	ld	a5,-32(s0)
    80000000026c:	00178793          	addi	a5,a5,1
    800000000270:	00000697          	auipc	a3,0x0
    800000000274:	49068693          	addi	a3,a3,1168 # 800000000700 <bin_to_hex_table>
    800000000278:	00e68733          	add	a4,a3,a4
    80000000027c:	00074703          	lbu	a4,0(a4)
    800000000280:	00e78023          	sb	a4,0(a5)
    800000000284:	fef44783          	lbu	a5,-17(s0)
    800000000288:	0047d79b          	srliw	a5,a5,0x4
    80000000028c:	0ff7f793          	andi	a5,a5,255
    800000000290:	0007879b          	sext.w	a5,a5
    800000000294:	00000717          	auipc	a4,0x0
    800000000298:	46c70713          	addi	a4,a4,1132 # 800000000700 <bin_to_hex_table>
    80000000029c:	00f707b3          	add	a5,a4,a5
    8000000002a0:	0007c703          	lbu	a4,0(a5)
    8000000002a4:	fe043783          	ld	a5,-32(s0)
    8000000002a8:	00e78023          	sb	a4,0(a5)
    8000000002ac:	00000013          	nop
    8000000002b0:	01813403          	ld	s0,24(sp)
    8000000002b4:	02010113          	addi	sp,sp,32
    8000000002b8:	00008067          	ret

00008000000002bc <_Z14print_uart_intj>:
    8000000002bc:	fd010113          	addi	sp,sp,-48
    8000000002c0:	02113423          	sd	ra,40(sp)
    8000000002c4:	02813023          	sd	s0,32(sp)
    8000000002c8:	03010413          	addi	s0,sp,48
    8000000002cc:	00050793          	mv	a5,a0
    8000000002d0:	fcf42e23          	sw	a5,-36(s0)
    8000000002d4:	00300793          	li	a5,3
    8000000002d8:	fef42623          	sw	a5,-20(s0)
    8000000002dc:	fec42783          	lw	a5,-20(s0)
    8000000002e0:	0007879b          	sext.w	a5,a5
    8000000002e4:	0607c063          	bltz	a5,800000000344 <_Z14print_uart_intj+0x88>
    8000000002e8:	fec42783          	lw	a5,-20(s0)
    8000000002ec:	0037979b          	slliw	a5,a5,0x3
    8000000002f0:	0007879b          	sext.w	a5,a5
    8000000002f4:	00078713          	mv	a4,a5
    8000000002f8:	fdc42783          	lw	a5,-36(s0)
    8000000002fc:	00e7d7bb          	srlw	a5,a5,a4
    800000000300:	0007879b          	sext.w	a5,a5
    800000000304:	fef405a3          	sb	a5,-21(s0)
    800000000308:	fe840713          	addi	a4,s0,-24
    80000000030c:	feb44783          	lbu	a5,-21(s0)
    800000000310:	00070593          	mv	a1,a4
    800000000314:	00078513          	mv	a0,a5
    800000000318:	f29ff0ef          	jal	ra,800000000240 <_Z10bin_to_hexhPh>
    80000000031c:	fe844783          	lbu	a5,-24(s0)
    800000000320:	00078513          	mv	a0,a5
    800000000324:	d99ff0ef          	jal	ra,8000000000bc <_Z12write_serialc>
    800000000328:	fe944783          	lbu	a5,-23(s0)
    80000000032c:	00078513          	mv	a0,a5
    800000000330:	d8dff0ef          	jal	ra,8000000000bc <_Z12write_serialc>
    800000000334:	fec42783          	lw	a5,-20(s0)
    800000000338:	fff7879b          	addiw	a5,a5,-1
    80000000033c:	fef42623          	sw	a5,-20(s0)
    800000000340:	f9dff06f          	j	8000000002dc <_Z14print_uart_intj+0x20>
    800000000344:	00000013          	nop
    800000000348:	02813083          	ld	ra,40(sp)
    80000000034c:	02013403          	ld	s0,32(sp)
    800000000350:	03010113          	addi	sp,sp,48
    800000000354:	00008067          	ret

0000800000000358 <_Z15print_uart_addrm>:
    800000000358:	fd010113          	addi	sp,sp,-48
    80000000035c:	02113423          	sd	ra,40(sp)
    800000000360:	02813023          	sd	s0,32(sp)
    800000000364:	03010413          	addi	s0,sp,48
    800000000368:	fca43c23          	sd	a0,-40(s0)
    80000000036c:	00700793          	li	a5,7
    800000000370:	fef42623          	sw	a5,-20(s0)
    800000000374:	fec42783          	lw	a5,-20(s0)
    800000000378:	0007879b          	sext.w	a5,a5
    80000000037c:	0407ce63          	bltz	a5,8000000003d8 <_Z15print_uart_addrm+0x80>
    800000000380:	fec42783          	lw	a5,-20(s0)
    800000000384:	0037979b          	slliw	a5,a5,0x3
    800000000388:	0007879b          	sext.w	a5,a5
    80000000038c:	00078713          	mv	a4,a5
    800000000390:	fd843783          	ld	a5,-40(s0)
    800000000394:	00e7d7b3          	srl	a5,a5,a4
    800000000398:	fef405a3          	sb	a5,-21(s0)
    80000000039c:	fe840713          	addi	a4,s0,-24
    8000000003a0:	feb44783          	lbu	a5,-21(s0)
    8000000003a4:	00070593          	mv	a1,a4
    8000000003a8:	00078513          	mv	a0,a5
    8000000003ac:	e95ff0ef          	jal	ra,800000000240 <_Z10bin_to_hexhPh>
    8000000003b0:	fe844783          	lbu	a5,-24(s0)
    8000000003b4:	00078513          	mv	a0,a5
    8000000003b8:	d05ff0ef          	jal	ra,8000000000bc <_Z12write_serialc>
    8000000003bc:	fe944783          	lbu	a5,-23(s0)
    8000000003c0:	00078513          	mv	a0,a5
    8000000003c4:	cf9ff0ef          	jal	ra,8000000000bc <_Z12write_serialc>
    8000000003c8:	fec42783          	lw	a5,-20(s0)
    8000000003cc:	fff7879b          	addiw	a5,a5,-1
    8000000003d0:	fef42623          	sw	a5,-20(s0)
    8000000003d4:	fa1ff06f          	j	800000000374 <_Z15print_uart_addrm+0x1c>
    8000000003d8:	00000013          	nop
    8000000003dc:	02813083          	ld	ra,40(sp)
    8000000003e0:	02013403          	ld	s0,32(sp)
    8000000003e4:	03010113          	addi	sp,sp,48
    8000000003e8:	00008067          	ret

00008000000003ec <_Z15print_uart_byteh>:
    8000000003ec:	fd010113          	addi	sp,sp,-48
    8000000003f0:	02113423          	sd	ra,40(sp)
    8000000003f4:	02813023          	sd	s0,32(sp)
    8000000003f8:	03010413          	addi	s0,sp,48
    8000000003fc:	00050793          	mv	a5,a0
    800000000400:	fcf40fa3          	sb	a5,-33(s0)
    800000000404:	fe840713          	addi	a4,s0,-24
    800000000408:	fdf44783          	lbu	a5,-33(s0)
    80000000040c:	00070593          	mv	a1,a4
    800000000410:	00078513          	mv	a0,a5
    800000000414:	e2dff0ef          	jal	ra,800000000240 <_Z10bin_to_hexhPh>
    800000000418:	fe844783          	lbu	a5,-24(s0)
    80000000041c:	00078513          	mv	a0,a5
    800000000420:	c9dff0ef          	jal	ra,8000000000bc <_Z12write_serialc>
    800000000424:	fe944783          	lbu	a5,-23(s0)
    800000000428:	00078513          	mv	a0,a5
    80000000042c:	c91ff0ef          	jal	ra,8000000000bc <_Z12write_serialc>
    800000000430:	00000013          	nop
    800000000434:	02813083          	ld	ra,40(sp)
    800000000438:	02013403          	ld	s0,32(sp)
    80000000043c:	03010113          	addi	sp,sp,48
    800000000440:	00008067          	ret

0000800000000444 <main>:
    800000000444:	fe010113          	addi	sp,sp,-32
    800000000448:	00113c23          	sd	ra,24(sp)
    80000000044c:	00813823          	sd	s0,16(sp)
    800000000450:	02010413          	addi	s0,sp,32
    800000000454:	000027b7          	lui	a5,0x2
    800000000458:	58078593          	addi	a1,a5,1408 # 2580 <_TEXT_START_-0x7fffffffda80>
    80000000045c:	02faf7b7          	lui	a5,0x2faf
    800000000460:	08078513          	addi	a0,a5,128 # 2faf080 <_TEXT_START_-0x7ffffd050f80>
    800000000464:	cadff0ef          	jal	ra,800000000110 <_Z9init_uartjj>
    800000000468:	00100793          	li	a5,1
    80000000046c:	fef42623          	sw	a5,-20(s0)
    800000000470:	fe043023          	sd	zero,-32(s0)
    800000000474:	00000517          	auipc	a0,0x0
    800000000478:	02c50513          	addi	a0,a0,44 # 8000000004a0 <_TEXT_END_>
    80000000047c:	d69ff0ef          	jal	ra,8000000001e4 <_Z10print_uartPKc>
    800000000480:	0000006f          	j	800000000480 <main+0x3c>

0000800000000484 <_Z11handle_trapv>:
    800000000484:	ff010113          	addi	sp,sp,-16
    800000000488:	00813423          	sd	s0,8(sp)
    80000000048c:	01010413          	addi	s0,sp,16
    800000000490:	00000013          	nop
    800000000494:	00813403          	ld	s0,8(sp)
    800000000498:	01010113          	addi	sp,sp,16
    80000000049c:	00008067          	ret
