
main.elf:     file format elf64-littleriscv


Disassembly of section .text:

0000800000000000 <_TEXT_START_>:
    800000000000:	010002b7          	lui	t0,0x1000
    800000000004:	0012829b          	addiw	t0,t0,1
    800000000008:	00f29293          	slli	t0,t0,0xf
    80000000000c:	00028113          	mv	sp,t0
    800000000010:	0040006f          	j	800000000014 <main>

0000800000000014 <main>:
    800000000014:	fd010113          	addi	sp,sp,-48
    800000000018:	02813423          	sd	s0,40(sp)
    80000000001c:	03010413          	addi	s0,sp,48
    800000000020:	00100793          	li	a5,1
    800000000024:	fef43423          	sd	a5,-24(s0)
    800000000028:	00100793          	li	a5,1
    80000000002c:	fef43023          	sd	a5,-32(s0)
    800000000030:	fc043823          	sd	zero,-48(s0)
    800000000034:	fc043c23          	sd	zero,-40(s0)
    800000000038:	fd843703          	ld	a4,-40(s0)
    80000000003c:	00200793          	li	a5,2
    800000000040:	02e7ca63          	blt	a5,a4,800000000074 <main+0x60>
    800000000044:	fe843703          	ld	a4,-24(s0)
    800000000048:	fe043783          	ld	a5,-32(s0)
    80000000004c:	00f707b3          	add	a5,a4,a5
    800000000050:	fcf43823          	sd	a5,-48(s0)
    800000000054:	fd043783          	ld	a5,-48(s0)
    800000000058:	fef43423          	sd	a5,-24(s0)
    80000000005c:	fd043783          	ld	a5,-48(s0)
    800000000060:	fef43023          	sd	a5,-32(s0)
    800000000064:	fd843783          	ld	a5,-40(s0)
    800000000068:	00178793          	addi	a5,a5,1
    80000000006c:	fcf43c23          	sd	a5,-40(s0)
    800000000070:	fc9ff06f          	j	800000000038 <main+0x24>
    800000000074:	0000006f          	j	800000000074 <main+0x60>
